; Function Attrs: mustprogress uwtable
define noundef signext i8 @_ZN6icu_757UVector14ensureCapacityEiR10UErrorCode(ptr nocapture noundef nonnull align 8 dereferenceable(40) %this, i32 noundef %minimumCapacity, ptr nocapture noundef nonnull align 4 dereferenceable(4) %status) local_unnamed_addr #1 align 2 {
entry:
  %0 = load i32, ptr %status, align 4
  %cmp.i = icmp slt i32 %0, 1
  br i1 %cmp.i, label %if.end, label %return

if.end:                                           ; preds = %entry
  %cmp = icmp slt i32 %minimumCapacity, 0
  br i1 %cmp, label %if.then2, label %if.end3

if.then2:                                         ; preds = %if.end
  store i32 1, ptr %status, align 4
  br label %return

if.end3:                                          ; preds = %if.end
  %capacity = getelementptr inbounds i8, ptr %this, i64 12
  %1 = load i32, ptr %capacity, align 4
  %cmp4 = icmp slt i32 %1, %minimumCapacity
  br i1 %cmp4, label %if.then5, label %return

if.then5:                                         ; preds = %if.end3
  %cmp7 = icmp sgt i32 %1, 1073741823
  br i1 %cmp7, label %if.then8, label %if.end9

if.then8:                                         ; preds = %if.then5
  store i32 1, ptr %status, align 4
  br label %return

if.end9:                                          ; preds = %if.then5
  %mul = shl nsw i32 %1, 1
  %spec.select = tail call i32 @llvm.smax.i32(i32 %mul, i32 %minimumCapacity)
  %cmp14 = icmp ugt i32 %spec.select, 268435455
  br i1 %cmp14, label %if.then15, label %if.end16

if.then15:                                        ; preds = %if.end9
  store i32 1, ptr %status, align 4
  br label %return

if.end16:                                         ; preds = %if.end9
  %elements = getelementptr inbounds i8, ptr %this, i64 16
  %2 = load ptr, ptr %elements, align 8
  %3 = shl nuw nsw i32 %spec.select, 3
  %mul17 = zext nneg i32 %3 to i64
  %call18 = tail call ptr @uprv_realloc_75(ptr noundef %2, i64 noundef %mul17) #18
  %cmp19 = icmp eq ptr %call18, null
  br i1 %cmp19, label %if.then20, label %if.end21

if.then20:                                        ; preds = %if.end16
  store i32 7, ptr %status, align 4
  br label %return

if.end21:                                         ; preds = %if.end16
  store ptr %call18, ptr %elements, align 8
  store i32 %spec.select, ptr %capacity, align 4
  br label %return

return:                                           ; preds = %if.end3, %if.end21, %entry, %if.then20, %if.then15, %if.then8, %if.then2
  %retval.0 = phi i8 [ 0, %if.then2 ], [ 0, %if.then8 ], [ 0, %if.then15 ], [ 0, %if.then20 ], [ 0, %entry ], [ 1, %if.end21 ], [ 1, %if.end3 ]
  ret i8 %retval.0
}